; Function Attrs: mustprogress uwtable
define hidden noundef zeroext i1 @_ZN4cvc58internal6theory11quantifiers15BoundedIntegers14hasNonBoundVarENS0_12NodeTemplateILb1EEES5_(ptr noundef nonnull align 8 captures(address) dereferenceable(768) %0, ptr noundef readonly captures(none) %1, ptr noundef readonly captures(none) %2) local_unnamed_addr #3 align 2 personality ptr @__gxx_personality_v0 {
  %4 = alloca %"class.std::map.447", align 8
  %5 = alloca %"class.cvc5::internal::NodeTemplate", align 8
  %6 = alloca %"class.cvc5::internal::NodeTemplate", align 8
  call void @llvm.lifetime.start.p0(i64 48, ptr nonnull %4) #26
  %7 = getelementptr inbounds nuw i8, ptr %4, i64 8
  store i32 0, ptr %7, align 8, !tbaa !361
  %8 = getelementptr inbounds nuw i8, ptr %4, i64 16
  store ptr null, ptr %8, align 8, !tbaa !366
  %9 = getelementptr inbounds nuw i8, ptr %4, i64 24
  store ptr %7, ptr %9, align 8, !tbaa !367
  %10 = getelementptr inbounds nuw i8, ptr %4, i64 32
  store ptr %7, ptr %10, align 8, !tbaa !368
  %11 = getelementptr inbounds nuw i8, ptr %4, i64 40
  store i64 0, ptr %11, align 8, !tbaa !369
  %12 = load ptr, ptr %1, align 8, !tbaa !6
  store ptr %12, ptr %5, align 8, !tbaa !6
  %13 = load i64, ptr %12, align 8
  %14 = lshr i64 %13, 40
  %15 = trunc nuw nsw i64 %14 to i32
  %16 = and i32 %15, 1048575
  %17 = icmp samesign ult i32 %16, 1048574
  br i1 %17, label %18, label %23, !prof !11

18:                                               ; preds = %3
  %19 = add i64 %13, 1099511627776
  %20 = and i64 %19, 1152920405095219200
  %21 = and i64 %13, -1152920405095219201
  %22 = or disjoint i64 %20, %21
  store i64 %22, ptr %12, align 8
  br label %_ZN4cvc58internal12NodeTemplateILb1EEC2ERKS2_.exit

23:                                               ; preds = %3
  %24 = icmp eq i32 %16, 1048574
  br i1 %24, label %25, label %_ZN4cvc58internal12NodeTemplateILb1EEC2ERKS2_.exit, !prof !12

25:                                               ; preds = %23
  %26 = or i64 %13, 1152920405095219200
  store i64 %26, ptr %12, align 8
  invoke void @_ZN4cvc58internal4expr9NodeValue20markRefCountMaxedOutEv(ptr noundef nonnull align 8 dereferenceable(24) %12)
          to label %_ZN4cvc58internal12NodeTemplateILb1EEC2ERKS2_.exit unwind label %73

_ZN4cvc58internal12NodeTemplateILb1EEC2ERKS2_.exit: ; preds = %23, %18, %25
  %27 = load ptr, ptr %2, align 8, !tbaa !6
  store ptr %27, ptr %6, align 8, !tbaa !6
  %28 = load i64, ptr %27, align 8
  %29 = lshr i64 %28, 40
  %30 = trunc nuw nsw i64 %29 to i32
  %31 = and i32 %30, 1048575
  %32 = icmp samesign ult i32 %31, 1048574
  br i1 %32, label %33, label %38, !prof !11

33:                                               ; preds = %_ZN4cvc58internal12NodeTemplateILb1EEC2ERKS2_.exit
  %34 = add i64 %28, 1099511627776
  %35 = and i64 %34, 1152920405095219200
  %36 = and i64 %28, -1152920405095219201
  %37 = or disjoint i64 %35, %36
  store i64 %37, ptr %27, align 8
  br label %_ZN4cvc58internal12NodeTemplateILb1EEC2ERKS2_.exit7

38:                                               ; preds = %_ZN4cvc58internal12NodeTemplateILb1EEC2ERKS2_.exit
  %39 = icmp eq i32 %31, 1048574
  br i1 %39, label %40, label %_ZN4cvc58internal12NodeTemplateILb1EEC2ERKS2_.exit7, !prof !12

40:                                               ; preds = %38
  %41 = or i64 %28, 1152920405095219200
  store i64 %41, ptr %27, align 8
  invoke void @_ZN4cvc58internal4expr9NodeValue20markRefCountMaxedOutEv(ptr noundef nonnull align 8 dereferenceable(24) %27)
          to label %_ZN4cvc58internal12NodeTemplateILb1EEC2ERKS2_.exit7 unwind label %75

_ZN4cvc58internal12NodeTemplateILb1EEC2ERKS2_.exit7: ; preds = %38, %33, %40
  %42 = invoke noundef zeroext i1 @_ZN4cvc58internal6theory11quantifiers15BoundedIntegers14hasNonBoundVarENS0_12NodeTemplateILb1EEES5_RSt3mapIS5_bSt4lessIS5_ESaISt4pairIKS5_bEEE(ptr noundef nonnull align 8 dereferenceable(768) %0, ptr noundef nonnull %5, ptr noundef nonnull %6, ptr noundef nonnull align 8 dereferenceable(48) %4)
          to label %43 unwind label %77

43:                                               ; preds = %_ZN4cvc58internal12NodeTemplateILb1EEC2ERKS2_.exit7
  %44 = load ptr, ptr %6, align 8, !tbaa !6
  %45 = load i64, ptr %44, align 8
  %46 = and i64 %45, 1152920405095219200
  %.not.i.i = icmp eq i64 %46, 1152920405095219200
  br i1 %.not.i.i, label %_ZN4cvc58internal12NodeTemplateILb1EED2Ev.exit, label %47, !prof !12

47:                                               ; preds = %43
  %48 = add i64 %45, 1152920405095219200
  %49 = and i64 %48, 1152920405095219200
  %50 = and i64 %45, -1152920405095219201
  %51 = or disjoint i64 %49, %50
  store i64 %51, ptr %44, align 8
  %52 = icmp eq i64 %49, 0
  br i1 %52, label %53, label %_ZN4cvc58internal12NodeTemplateILb1EED2Ev.exit, !prof !12

53:                                               ; preds = %47
  invoke void @_ZN4cvc58internal4expr9NodeValue15markForDeletionEv(ptr noundef nonnull align 8 dereferenceable(24) %44)
          to label %_ZN4cvc58internal12NodeTemplateILb1EED2Ev.exit unwind label %54

54:                                               ; preds = %53
  %55 = landingpad { ptr, i32 }
          catch ptr null
  %56 = extractvalue { ptr, i32 } %55, 0
  call void @__clang_call_terminate(ptr %56) #28
  unreachable

_ZN4cvc58internal12NodeTemplateILb1EED2Ev.exit:   ; preds = %43, %47, %53
  %57 = load i64, ptr %12, align 8
  %58 = and i64 %57, 1152920405095219200
  %.not.i.i8 = icmp eq i64 %58, 1152920405095219200
  br i1 %.not.i.i8, label %_ZN4cvc58internal12NodeTemplateILb1EED2Ev.exit9, label %59, !prof !12

59:                                               ; preds = %_ZN4cvc58internal12NodeTemplateILb1EED2Ev.exit
  %60 = add i64 %57, 1152920405095219200
  %61 = and i64 %60, 1152920405095219200
  %62 = and i64 %57, -1152920405095219201
  %63 = or disjoint i64 %61, %62
  store i64 %63, ptr %12, align 8
  %64 = icmp eq i64 %61, 0
  br i1 %64, label %65, label %_ZN4cvc58internal12NodeTemplateILb1EED2Ev.exit9, !prof !12

65:                                               ; preds = %59
  invoke void @_ZN4cvc58internal4expr9NodeValue15markForDeletionEv(ptr noundef nonnull align 8 dereferenceable(24) %12)
          to label %_ZN4cvc58internal12NodeTemplateILb1EED2Ev.exit9 unwind label %66

66:                                               ; preds = %65
  %67 = landingpad { ptr, i32 }
          catch ptr null
  %68 = extractvalue { ptr, i32 } %67, 0
  call void @__clang_call_terminate(ptr %68) #28
  unreachable

_ZN4cvc58internal12NodeTemplateILb1EED2Ev.exit9:  ; preds = %_ZN4cvc58internal12NodeTemplateILb1EED2Ev.exit, %59, %65
  %69 = load ptr, ptr %8, align 8, !tbaa !366
  invoke void @_ZNSt8_Rb_treeIN4cvc58internal12NodeTemplateILb1EEESt4pairIKS3_bESt10_Select1stIS6_ESt4lessIS3_ESaIS6_EE8_M_eraseEPSt13_Rb_tree_nodeIS6_E(ptr noundef nonnull align 8 dereferenceable(48) %4, ptr noundef %69)
          to label %_ZNSt3mapIN4cvc58internal12NodeTemplateILb1EEEbSt4lessIS3_ESaISt4pairIKS3_bEEED2Ev.exit unwind label %70

70:                                               ; preds = %_ZN4cvc58internal12NodeTemplateILb1EED2Ev.exit9
  %71 = landingpad { ptr, i32 }
          catch ptr null
  %72 = extractvalue { ptr, i32 } %71, 0
  call void @__clang_call_terminate(ptr %72) #28
  unreachable

_ZNSt3mapIN4cvc58internal12NodeTemplateILb1EEEbSt4lessIS3_ESaISt4pairIKS3_bEEED2Ev.exit: ; preds = %_ZN4cvc58internal12NodeTemplateILb1EED2Ev.exit9
  call void @llvm.lifetime.end.p0(i64 48, ptr nonnull %4) #26
  ret i1 %42

73:                                               ; preds = %25
  %74 = landingpad { ptr, i32 }
          cleanup
  br label %80

75:                                               ; preds = %40
  %76 = landingpad { ptr, i32 }
          cleanup
  br label %79

77:                                               ; preds = %_ZN4cvc58internal12NodeTemplateILb1EEC2ERKS2_.exit7
  %78 = landingpad { ptr, i32 }
          cleanup
  call void @_ZN4cvc58internal12NodeTemplateILb1EED2Ev(ptr noundef nonnull align 8 dereferenceable(8) %6) #26
  br label %79

79:                                               ; preds = %77, %75
  %.pn = phi { ptr, i32 } [ %78, %77 ], [ %76, %75 ]
  call void @_ZN4cvc58internal12NodeTemplateILb1EED2Ev(ptr noundef nonnull align 8 dereferenceable(8) %5) #26
  br label %80

80:                                               ; preds = %79, %73
  %.pn.pn = phi { ptr, i32 } [ %.pn, %79 ], [ %74, %73 ]
  call void @_ZNSt3mapIN4cvc58internal12NodeTemplateILb1EEEbSt4lessIS3_ESaISt4pairIKS3_bEEED2Ev(ptr noundef nonnull align 8 dereferenceable(48) %4) #26
  call void @llvm.lifetime.end.p0(i64 48, ptr nonnull %4) #26
  resume { ptr, i32 } %.pn.pn
}